; Function Attrs: nounwind uwtable
define internal ptr @typevartuple_default(ptr noundef captures(none) %0, ptr readnone captures(none) %1) #0 {
  %3 = getelementptr inbounds nuw i8, ptr %0, i64 24
  %4 = load ptr, ptr %3, align 8, !tbaa !111
  %.not = icmp eq ptr %4, null
  br i1 %.not, label %10, label %5

5:                                                ; preds = %2
  %6 = load i32, ptr %4, align 8, !tbaa !27
  %7 = icmp slt i32 %6, 0
  br i1 %7, label %_Py_NewRef.exit, label %8

8:                                                ; preds = %5
  %9 = add nuw i32 %6, 1
  store i32 %9, ptr %4, align 8, !tbaa !27
  br label %_Py_NewRef.exit

10:                                               ; preds = %2
  %11 = getelementptr inbounds nuw i8, ptr %0, i64 32
  %12 = load ptr, ptr %11, align 8, !tbaa !112
  %13 = icmp eq ptr %12, null
  br i1 %13, label %_Py_NewRef.exit, label %14

14:                                               ; preds = %10
  %15 = tail call ptr @PyObject_CallNoArgs(ptr noundef nonnull %12) #8
  %.not.i.i = icmp eq ptr %15, null
  br i1 %.not.i.i, label %_Py_XNewRef.exit, label %16

16:                                               ; preds = %14
  %17 = load i32, ptr %15, align 8, !tbaa !27
  %18 = icmp slt i32 %17, 0
  br i1 %18, label %_Py_XNewRef.exit, label %19

19:                                               ; preds = %16
  %20 = add nuw i32 %17, 1
  store i32 %20, ptr %15, align 8, !tbaa !27
  br label %_Py_XNewRef.exit

_Py_XNewRef.exit:                                 ; preds = %14, %16, %19
  store ptr %15, ptr %3, align 8, !tbaa !111
  br label %_Py_NewRef.exit

_Py_NewRef.exit:                                  ; preds = %8, %5, %10, %_Py_XNewRef.exit
  %.0 = phi ptr [ %15, %_Py_XNewRef.exit ], [ @_Py_NoDefaultStruct, %10 ], [ %4, %5 ], [ %4, %8 ]
  ret ptr %.0
}